target datalayout = "e-m:e-p270:32:32-p271:32:32-p272:64:64-i64:64-i128:128-f80:128-n8:16:32:64-S128"
target triple = "x86_64-unknown-linux-gnu"

%"class.QuantLib::Date" = type { i64 }
%"class.boost::shared_ptr" = type { ptr, %"class.boost::detail::shared_count" }
%"class.boost::detail::shared_count" = type { ptr }
%"class.QuantLib::EventSet" = type { %"class.QuantLib::CatRisk", %"class.boost::shared_ptr", %"class.QuantLib::Date", %"class.QuantLib::Date" }
%"class.QuantLib::CatRisk" = type { ptr }

@_ZTVN8QuantLib8EventSetE = unnamed_addr constant { [5 x ptr] } { [5 x ptr] [ptr null, ptr @_ZTIN8QuantLib8EventSetE, ptr @_ZN8QuantLib8EventSetD2Ev, ptr @_ZN8QuantLib8EventSetD0Ev, ptr @_ZNK8QuantLib8EventSet13newSimulationERKNS_4DateES3_] }, align 8
@_ZTVN8QuantLib7CatRiskE = linkonce_odr unnamed_addr constant { [5 x ptr] } { [5 x ptr] [ptr null, ptr @_ZTIN8QuantLib7CatRiskE, ptr @_ZN8QuantLib7CatRiskD2Ev, ptr @_ZN8QuantLib7CatRiskD0Ev, ptr @__cxa_pure_virtual] }, comdat, align 8

; Function Attrs: mustprogress nounwind uwtable
define linkonce_odr void @_ZN5boost6detail12shared_countC2EOS1_(ptr noundef nonnull align 8 dereferenceable(8) %this, ptr noundef nonnull align 8 dereferenceable(8) %r) unnamed_addr #1 comdat align 2 {
entry:
  %this.addr = alloca ptr, align 8
  %r.addr = alloca ptr, align 8
  store ptr %this, ptr %this.addr, align 8, !tbaa !3
  store ptr %r, ptr %r.addr, align 8, !tbaa !3
  %this1 = load ptr, ptr %this.addr, align 8
  %pi_ = getelementptr inbounds nuw %"class.boost::detail::shared_count", ptr %this1, i32 0, i32 0
  %0 = load ptr, ptr %r.addr, align 8, !tbaa !3
  %pi_2 = getelementptr inbounds nuw %"class.boost::detail::shared_count", ptr %0, i32 0, i32 0
  %1 = load ptr, ptr %pi_2, align 8, !tbaa !64
  store ptr %1, ptr %pi_, align 8, !tbaa !64
  %2 = load ptr, ptr %r.addr, align 8, !tbaa !3
  %pi_3 = getelementptr inbounds nuw %"class.boost::detail::shared_count", ptr %2, i32 0, i32 0
  store ptr null, ptr %pi_3, align 8, !tbaa !64
  ret void
}

; Function Attrs: mustprogress nounwind uwtable
define linkonce_odr void @_ZN5boost10shared_ptrISt6vectorISt4pairIN8QuantLib4DateEdESaIS5_EEEC2EOS8_(ptr noundef nonnull align 8 dereferenceable(16) %this, ptr noundef nonnull align 8 dereferenceable(16) %r) unnamed_addr #1 comdat align 2 {
entry:
  %this.addr = alloca ptr, align 8
  %r.addr = alloca ptr, align 8
  store ptr %this, ptr %this.addr, align 8, !tbaa !3
  store ptr %r, ptr %r.addr, align 8, !tbaa !3
  %this1 = load ptr, ptr %this.addr, align 8
  %px = getelementptr inbounds nuw %"class.boost::shared_ptr", ptr %this1, i32 0, i32 0
  %0 = load ptr, ptr %r.addr, align 8, !tbaa !3
  %px2 = getelementptr inbounds nuw %"class.boost::shared_ptr", ptr %0, i32 0, i32 0
  %1 = load ptr, ptr %px2, align 8, !tbaa !22
  store ptr %1, ptr %px, align 8, !tbaa !22
  %pn = getelementptr inbounds nuw %"class.boost::shared_ptr", ptr %this1, i32 0, i32 1
  %2 = load ptr, ptr %r.addr, align 8, !tbaa !3
  %pn3 = getelementptr inbounds nuw %"class.boost::shared_ptr", ptr %2, i32 0, i32 1
  call void @_ZN5boost6detail12shared_countC2EOS1_(ptr noundef nonnull align 8 dereferenceable(8) %pn, ptr noundef nonnull align 8 dereferenceable(8) %pn3) #18
  %3 = load ptr, ptr %r.addr, align 8, !tbaa !3
  %px4 = getelementptr inbounds nuw %"class.boost::shared_ptr", ptr %3, i32 0, i32 0
  store ptr null, ptr %px4, align 8, !tbaa !22
  ret void
}

; Function Attrs: inlinehint mustprogress nounwind uwtable
define linkonce_odr void @_ZN8QuantLib7CatRiskC2Ev(ptr noundef nonnull align 8 dereferenceable(8) %this) unnamed_addr #7 comdat align 2 {
entry:
  %this.addr = alloca ptr, align 8
  store ptr %this, ptr %this.addr, align 8, !tbaa !3
  %this1 = load ptr, ptr %this.addr, align 8
  store ptr getelementptr inbounds inrange(-16, 24) ({ [5 x ptr] }, ptr @_ZTVN8QuantLib7CatRiskE, i32 0, i32 0, i32 2), ptr %this1, align 8, !tbaa !10
  ret void
}

; Function Attrs: mustprogress nounwind uwtable
define void @_ZN8QuantLib8EventSetC2EN5boost10shared_ptrISt6vectorISt4pairINS_4DateEdESaIS6_EEEES5_S5_(ptr noundef nonnull align 8 dereferenceable(40) %this, ptr noundef %events, i64 %eventsStart.coerce, i64 %eventsEnd.coerce) unnamed_addr #1 align 2 {
entry:
  %eventsStart = alloca %"class.QuantLib::Date", align 8
  %eventsEnd = alloca %"class.QuantLib::Date", align 8
  %this.addr = alloca ptr, align 8
  %events.indirect_addr = alloca ptr, align 8
  %coerce.dive = getelementptr inbounds nuw %"class.QuantLib::Date", ptr %eventsStart, i32 0, i32 0
  store i64 %eventsStart.coerce, ptr %coerce.dive, align 8
  %coerce.dive1 = getelementptr inbounds nuw %"class.QuantLib::Date", ptr %eventsEnd, i32 0, i32 0
  store i64 %eventsEnd.coerce, ptr %coerce.dive1, align 8
  store ptr %this, ptr %this.addr, align 8, !tbaa !3
  store ptr %events, ptr %events.indirect_addr, align 8, !tbaa !3
  %this2 = load ptr, ptr %this.addr, align 8
  call void @_ZN8QuantLib7CatRiskC2Ev(ptr noundef nonnull align 8 dereferenceable(8) %this2) #18
  store ptr getelementptr inbounds inrange(-16, 24) ({ [5 x ptr] }, ptr @_ZTVN8QuantLib8EventSetE, i32 0, i32 0, i32 2), ptr %this2, align 8, !tbaa !10
  %events_ = getelementptr inbounds nuw %"class.QuantLib::EventSet", ptr %this2, i32 0, i32 1
  call void @_ZN5boost10shared_ptrISt6vectorISt4pairIN8QuantLib4DateEdESaIS5_EEEC2EOS8_(ptr noundef nonnull align 8 dereferenceable(16) %events_, ptr noundef nonnull align 8 dereferenceable(16) %events) #18
  %eventsStart_ = getelementptr inbounds nuw %"class.QuantLib::EventSet", ptr %this2, i32 0, i32 2
  call void @llvm.memcpy.p0.p0.i64(ptr align 8 %eventsStart_, ptr align 8 %eventsStart, i64 8, i1 false), !tbaa.struct !7
  %eventsEnd_ = getelementptr inbounds nuw %"class.QuantLib::EventSet", ptr %this2, i32 0, i32 3
  call void @llvm.memcpy.p0.p0.i64(ptr align 8 %eventsEnd_, ptr align 8 %eventsEnd, i64 8, i1 false), !tbaa.struct !7
  ret void
}