; Function Attrs: mustprogress nofree norecurse nosync nounwind willreturn memory(argmem: readwrite) uwtable
define void @_ZN8QuantLib8EventSetC2EN5boost10shared_ptrISt6vectorISt4pairINS_4DateEdESaIS6_EEEES5_S5_(ptr nocapture noundef nonnull writeonly align 8 dereferenceable(40) %this, ptr nocapture noundef %events, i64 %eventsStart.coerce, i64 %eventsEnd.coerce) unnamed_addr #5 align 2 {
entry:
  store ptr getelementptr inbounds inrange(-16, 24) (i8, ptr @_ZTVN8QuantLib8EventSetE, i64 16), ptr %this, align 8, !tbaa !7
  %events_ = getelementptr inbounds nuw i8, ptr %this, i64 8
  %0 = load ptr, ptr %events, align 8, !tbaa !9
  store ptr %0, ptr %events_, align 8, !tbaa !9
  %pn.i = getelementptr inbounds nuw i8, ptr %this, i64 16
  %pn3.i = getelementptr inbounds nuw i8, ptr %events, i64 8
  %1 = load ptr, ptr %pn3.i, align 8, !tbaa !13
  store ptr %1, ptr %pn.i, align 8, !tbaa !13
  tail call void @llvm.memset.p0.i64(ptr noundef nonnull align 8 dereferenceable(16) %events, i8 0, i64 16, i1 false)
  %eventsStart_ = getelementptr inbounds nuw i8, ptr %this, i64 24
  store i64 %eventsStart.coerce, ptr %eventsStart_, align 8, !tbaa !3
  %eventsEnd_ = getelementptr inbounds nuw i8, ptr %this, i64 32
  store i64 %eventsEnd.coerce, ptr %eventsEnd_, align 8, !tbaa !3
  ret void
}